; Function Attrs: cold nounwind optsize uwtable
define internal range(i32 -12, 1) i32 @ir2_decode_init(ptr noundef %0) #0 {
  %2 = getelementptr inbounds nuw i8, ptr %0, i64 32
  %3 = load ptr, ptr %2, align 8, !tbaa !4
  store ptr %0, ptr %3, align 8, !tbaa !27
  %4 = getelementptr inbounds nuw i8, ptr %0, i64 136
  store i32 6, ptr %4, align 8, !tbaa !32
  %5 = tail call ptr @av_frame_alloc() #6
  %6 = getelementptr inbounds nuw i8, ptr %3, i64 8
  store ptr %5, ptr %6, align 8, !tbaa !33
  %.not = icmp eq ptr %5, null
  br i1 %.not, label %9, label %7

7:                                                ; preds = %1
  %8 = tail call i32 @pthread_once(ptr noundef nonnull @ir2_decode_init.init_static_once, ptr noundef nonnull @ir2_init_static) #6
  br label %9

9:                                                ; preds = %1, %7
  %.0 = phi i32 [ 0, %7 ], [ -12, %1 ]
  ret i32 %.0
}